target datalayout = "e-m:e-p270:32:32-p271:32:32-p272:64:64-i64:64-i128:128-f80:128-n8:16:32:64-S128"
target triple = "x86_64-unknown-linux-gnu"

%"class.icu_75::DateIntervalInfo" = type { %"class.icu_75::UObject", %"class.icu_75::UnicodeString", i8, ptr }
%"class.icu_75::UObject" = type { ptr }
%"class.icu_75::UnicodeString" = type { %"class.icu_75::Replaceable", %"union.icu_75::UnicodeString::StackBufferOrFields" }
%"class.icu_75::Replaceable" = type { %"class.icu_75::UObject" }
%"union.icu_75::UnicodeString::StackBufferOrFields" = type { %struct.anon.0, [32 x i8] }
%struct.anon.0 = type { i16, i32, i32, ptr }

; Function Attrs: mustprogress nounwind uwtable
define internal noundef signext i8 @_ZL9U_FAILURE10UErrorCode(i32 noundef %code) #0 {
entry:
  %code.addr = alloca i32, align 4
  store i32 %code, ptr %code.addr, align 4
  %0 = load i32, ptr %code.addr, align 4
  %cmp = icmp sgt i32 %0, 0
  %conv = zext i1 %cmp to i8
  ret i8 %conv
}

; Function Attrs: mustprogress uwtable
define noundef nonnull align 8 dereferenceable(88) ptr @_ZN6icu_7516DateIntervalInfoaSERKS0_(ptr noundef nonnull align 8 dereferenceable(88) %this, ptr noundef nonnull align 8 dereferenceable(88) %dtitvinf) #1 align 2 {
entry:
  %retval = alloca ptr, align 8
  %this.addr = alloca ptr, align 8
  %dtitvinf.addr = alloca ptr, align 8
  %status = alloca i32, align 4
  store ptr %this, ptr %this.addr, align 8
  store ptr %dtitvinf, ptr %dtitvinf.addr, align 8
  %this1 = load ptr, ptr %this.addr, align 8
  %0 = load ptr, ptr %dtitvinf.addr, align 8
  %cmp = icmp eq ptr %this1, %0
  br i1 %cmp, label %if.then, label %if.end

if.then:                                          ; preds = %entry
  store ptr %this1, ptr %retval, align 8
  br label %return

if.end:                                           ; preds = %entry
  store i32 0, ptr %status, align 4
  %fIntervalPatterns = getelementptr inbounds %"class.icu_75::DateIntervalInfo", ptr %this1, i32 0, i32 3
  %1 = load ptr, ptr %fIntervalPatterns, align 8
  call void @_ZN6icu_7516DateIntervalInfo10deleteHashEPNS_9HashtableE(ptr noundef nonnull align 8 dereferenceable(88) %this1, ptr noundef %1)
  %call = call noundef ptr @_ZN6icu_7516DateIntervalInfo8initHashER10UErrorCode(ptr noundef nonnull align 8 dereferenceable(88) %this1, ptr noundef nonnull align 4 dereferenceable(4) %status)
  %fIntervalPatterns2 = getelementptr inbounds %"class.icu_75::DateIntervalInfo", ptr %this1, i32 0, i32 3
  store ptr %call, ptr %fIntervalPatterns2, align 8
  %2 = load ptr, ptr %dtitvinf.addr, align 8
  %fIntervalPatterns3 = getelementptr inbounds %"class.icu_75::DateIntervalInfo", ptr %2, i32 0, i32 3
  %3 = load ptr, ptr %fIntervalPatterns3, align 8
  %fIntervalPatterns4 = getelementptr inbounds %"class.icu_75::DateIntervalInfo", ptr %this1, i32 0, i32 3
  %4 = load ptr, ptr %fIntervalPatterns4, align 8
  call void @_ZN6icu_7516DateIntervalInfo8copyHashEPKNS_9HashtableEPS1_R10UErrorCode(ptr noundef nonnull align 8 dereferenceable(88) %this1, ptr noundef %3, ptr noundef %4, ptr noundef nonnull align 4 dereferenceable(4) %status)
  %5 = load i32, ptr %status, align 4
  %call5 = call noundef signext i8 @_ZL9U_FAILURE10UErrorCode(i32 noundef %5)
  %tobool = icmp ne i8 %call5, 0
  br i1 %tobool, label %if.then6, label %if.end7

if.then6:                                         ; preds = %if.end
  store ptr %this1, ptr %retval, align 8
  br label %return

if.end7:                                          ; preds = %if.end
  %6 = load ptr, ptr %dtitvinf.addr, align 8
  %fFallbackIntervalPattern = getelementptr inbounds %"class.icu_75::DateIntervalInfo", ptr %6, i32 0, i32 1
  %fFallbackIntervalPattern8 = getelementptr inbounds %"class.icu_75::DateIntervalInfo", ptr %this1, i32 0, i32 1
  %call9 = call noundef nonnull align 8 dereferenceable(64) ptr @_ZN6icu_7513UnicodeStringaSERKS0_(ptr noundef nonnull align 8 dereferenceable(64) %fFallbackIntervalPattern8, ptr noundef nonnull align 8 dereferenceable(64) %fFallbackIntervalPattern)
  %7 = load ptr, ptr %dtitvinf.addr, align 8
  %fFirstDateInPtnIsLaterDate = getelementptr inbounds %"class.icu_75::DateIntervalInfo", ptr %7, i32 0, i32 2
  %8 = load i8, ptr %fFirstDateInPtnIsLaterDate, align 8
  %fFirstDateInPtnIsLaterDate10 = getelementptr inbounds %"class.icu_75::DateIntervalInfo", ptr %this1, i32 0, i32 2
  store i8 %8, ptr %fFirstDateInPtnIsLaterDate10, align 8
  store ptr %this1, ptr %retval, align 8
  br label %return

return:                                           ; preds = %if.end7, %if.then6, %if.then
  %9 = load ptr, ptr %retval, align 8
  ret ptr %9
}