; Function Attrs: mustprogress uwtable
define noundef nonnull align 8 dereferenceable(88) ptr @_ZN6icu_7516DateIntervalInfoaSERKS0_(ptr noundef nonnull returned align 8 dereferenceable(88) %this, ptr noundef nonnull align 8 dereferenceable(88) %dtitvinf) local_unnamed_addr #1 align 2 {
entry:
  %status = alloca i32, align 4
  %cmp = icmp eq ptr %this, %dtitvinf
  br i1 %cmp, label %return, label %if.end

if.end:                                           ; preds = %entry
  store i32 0, ptr %status, align 4
  %fIntervalPatterns = getelementptr inbounds i8, ptr %this, i64 80
  %0 = load ptr, ptr %fIntervalPatterns, align 8
  tail call void @_ZN6icu_7516DateIntervalInfo10deleteHashEPNS_9HashtableE(ptr noundef nonnull align 8 dereferenceable(88) %this, ptr noundef %0)
  %call = call noundef ptr @_ZN6icu_7516DateIntervalInfo8initHashER10UErrorCode(ptr nonnull align 8 poison, ptr noundef nonnull align 4 dereferenceable(4) %status)
  store ptr %call, ptr %fIntervalPatterns, align 8
  %fIntervalPatterns3 = getelementptr inbounds i8, ptr %dtitvinf, i64 80
  %1 = load ptr, ptr %fIntervalPatterns3, align 8
  call void @_ZN6icu_7516DateIntervalInfo8copyHashEPKNS_9HashtableEPS1_R10UErrorCode(ptr nonnull align 8 poison, ptr noundef %1, ptr noundef %call, ptr noundef nonnull align 4 dereferenceable(4) %status)
  %2 = load i32, ptr %status, align 4
  %cmp.i = icmp slt i32 %2, 1
  br i1 %cmp.i, label %if.end7, label %return

if.end7:                                          ; preds = %if.end
  %fFallbackIntervalPattern = getelementptr inbounds i8, ptr %dtitvinf, i64 8
  %fFallbackIntervalPattern8 = getelementptr inbounds i8, ptr %this, i64 8
  %call9 = call noundef nonnull align 8 dereferenceable(64) ptr @_ZN6icu_7513UnicodeStringaSERKS0_(ptr noundef nonnull align 8 dereferenceable(64) %fFallbackIntervalPattern8, ptr noundef nonnull align 8 dereferenceable(64) %fFallbackIntervalPattern)
  %fFirstDateInPtnIsLaterDate = getelementptr inbounds i8, ptr %dtitvinf, i64 72
  %3 = load i8, ptr %fFirstDateInPtnIsLaterDate, align 8
  %fFirstDateInPtnIsLaterDate10 = getelementptr inbounds i8, ptr %this, i64 72
  store i8 %3, ptr %fFirstDateInPtnIsLaterDate10, align 8
  br label %return

return:                                           ; preds = %if.end, %entry, %if.end7
  ret ptr %this
}